target datalayout = "e-m:e-p270:32:32-p271:32:32-p272:64:64-i64:64-i128:128-f80:128-n8:16:32:64-S128"
target triple = "x86_64-pc-linux-gnu"

%"class.absl::NoDestructor.48" = type { %"class.absl::NoDestructor<std::__cxx11::basic_string<char>>::PlacementImpl" }
%"class.absl::NoDestructor<std::__cxx11::basic_string<char>>::PlacementImpl" = type { [32 x i8] }

@.str.56 = private unnamed_addr constant [5 x i8] c"Str2\00", align 1
@_ZZN12_GLOBAL__N_14Str2B5cxx11EvE1xB5cxx11 = internal global %"class.absl::NoDestructor.48" zeroinitializer, align 8
@_ZGVZN12_GLOBAL__N_14Str2B5cxx11EvE1xB5cxx11 = internal global i64 0, align 8

; Function Attrs: mustprogress nounwind uwtable
define linkonce_odr dso_local noundef ptr @_ZSt7launderINSt7__cxx1112basic_stringIcSt11char_traitsIcESaIcEEEEPT_S7_(ptr noundef %0) #5 comdat {
  %2 = alloca ptr, align 8
  store ptr %0, ptr %2, align 8, !tbaa !11
  %3 = load ptr, ptr %2, align 8, !tbaa !11
  ret ptr %3
}

; Function Attrs: mustprogress nounwind uwtable
define linkonce_odr dso_local noundef ptr @_ZN4absl12NoDestructorINSt7__cxx1112basic_stringIcSt11char_traitsIcESaIcEEEE13PlacementImpl7LaunderIS6_EEPT_SB_(ptr noundef %0) #5 comdat align 2 {
  %2 = alloca ptr, align 8
  store ptr %0, ptr %2, align 8, !tbaa !11
  %3 = load ptr, ptr %2, align 8, !tbaa !11
  %4 = call noundef ptr @_ZSt7launderINSt7__cxx1112basic_stringIcSt11char_traitsIcESaIcEEEEPT_S7_(ptr noundef %3) #3
  ret ptr %4
}

; Function Attrs: mustprogress uwtable
define linkonce_odr dso_local noundef ptr @_ZN4absl12NoDestructorINSt7__cxx1112basic_stringIcSt11char_traitsIcESaIcEEEE13PlacementImpl3getEv(ptr noundef nonnull align 8 dereferenceable(32) %0) #6 comdat align 2 {
  %2 = alloca ptr, align 8
  store ptr %0, ptr %2, align 8, !tbaa !238
  %3 = load ptr, ptr %2, align 8
  %4 = getelementptr inbounds nuw %"class.absl::NoDestructor<std::__cxx11::basic_string<char>>::PlacementImpl", ptr %3, i32 0, i32 0
  %5 = call noundef ptr @_ZN4absl12NoDestructorINSt7__cxx1112basic_stringIcSt11char_traitsIcESaIcEEEE13PlacementImpl7LaunderIS6_EEPT_SB_(ptr noundef %4)
  ret ptr %5
}

; Function Attrs: mustprogress uwtable
define linkonce_odr dso_local noundef ptr @_ZN4absl12NoDestructorINSt7__cxx1112basic_stringIcSt11char_traitsIcESaIcEEEE3getEv(ptr noundef nonnull align 8 dereferenceable(32) %0) #6 comdat align 2 {
  %2 = alloca ptr, align 8
  store ptr %0, ptr %2, align 8, !tbaa !236
  %3 = load ptr, ptr %2, align 8
  %4 = getelementptr inbounds nuw %"class.absl::NoDestructor.48", ptr %3, i32 0, i32 0
  %5 = call noundef ptr @_ZN4absl12NoDestructorINSt7__cxx1112basic_stringIcSt11char_traitsIcESaIcEEEE13PlacementImpl3getEv(ptr noundef nonnull align 8 dereferenceable(32) %4)
  ret ptr %5
}

; Function Attrs: mustprogress uwtable
define linkonce_odr dso_local noundef nonnull align 8 dereferenceable(32) ptr @_ZN4absl12NoDestructorINSt7__cxx1112basic_stringIcSt11char_traitsIcESaIcEEEEdeEv(ptr noundef nonnull align 8 dereferenceable(32) %0) #6 comdat align 2 {
  %2 = alloca ptr, align 8
  store ptr %0, ptr %2, align 8, !tbaa !236
  %3 = load ptr, ptr %2, align 8
  %4 = call noundef ptr @_ZN4absl12NoDestructorINSt7__cxx1112basic_stringIcSt11char_traitsIcESaIcEEEE3getEv(ptr noundef nonnull align 8 dereferenceable(32) %3)
  ret ptr %4
}

; Function Attrs: mustprogress uwtable
define internal noundef nonnull align 8 dereferenceable(32) ptr @_ZN12_GLOBAL__N_14Str2B5cxx11Ev() #6 personality ptr @__gxx_personality_v0 {
  %1 = alloca ptr, align 8
  %2 = alloca i32, align 4
  %3 = load atomic i8, ptr @_ZGVZN12_GLOBAL__N_14Str2B5cxx11EvE1xB5cxx11 acquire, align 8
  %4 = icmp eq i8 %3, 0
  br i1 %4, label %5, label %10, !prof !225

5:                                                ; preds = %0
  %6 = call i32 @__cxa_guard_acquire(ptr @_ZGVZN12_GLOBAL__N_14Str2B5cxx11EvE1xB5cxx11) #3
  %7 = icmp ne i32 %6, 0
  br i1 %7, label %8, label %10

8:                                                ; preds = %5
  invoke void @_ZN4absl12NoDestructorINSt7__cxx1112basic_stringIcSt11char_traitsIcESaIcEEEEC2IJRA5_KcETnNSt9enable_ifIXntsr3std7is_sameIFvDpRNSt5decayIT_E4typeEEFvRS7_EEE5valueEiE4typeELi0EEEDpOSE_(ptr noundef nonnull align 8 dereferenceable(32) @_ZZN12_GLOBAL__N_14Str2B5cxx11EvE1xB5cxx11, ptr noundef nonnull align 1 dereferenceable(5) @.str.56)
          to label %9 unwind label %12

9:                                                ; preds = %8
  call void @__cxa_guard_release(ptr @_ZGVZN12_GLOBAL__N_14Str2B5cxx11EvE1xB5cxx11) #3
  br label %10

10:                                               ; preds = %9, %5, %0
  %11 = call noundef nonnull align 8 dereferenceable(32) ptr @_ZN4absl12NoDestructorINSt7__cxx1112basic_stringIcSt11char_traitsIcESaIcEEEEdeEv(ptr noundef nonnull align 8 dereferenceable(32) @_ZZN12_GLOBAL__N_14Str2B5cxx11EvE1xB5cxx11)
  ret ptr %11

12:                                               ; preds = %8
  %13 = landingpad { ptr, i32 }
          cleanup
  %14 = extractvalue { ptr, i32 } %13, 0
  store ptr %14, ptr %1, align 8
  %15 = extractvalue { ptr, i32 } %13, 1
  store i32 %15, ptr %2, align 4
  call void @__cxa_guard_abort(ptr @_ZGVZN12_GLOBAL__N_14Str2B5cxx11EvE1xB5cxx11) #3
  br label %16

16:                                               ; preds = %12
  %17 = load ptr, ptr %1, align 8
  %18 = load i32, ptr %2, align 4
  %19 = insertvalue { ptr, i32 } poison, ptr %17, 0
  %20 = insertvalue { ptr, i32 } %19, i32 %18, 1
  resume { ptr, i32 } %20
}