; Function Attrs: mustprogress uwtable
define internal fastcc noundef nonnull align 8 dereferenceable(32) ptr @_ZN12_GLOBAL__N_14Str2B5cxx11Ev() unnamed_addr #4 personality ptr @__gxx_personality_v0 {
  %1 = load atomic i8, ptr @_ZGVZN12_GLOBAL__N_14Str2B5cxx11EvE1xB5cxx11 acquire, align 8
  %2 = icmp eq i8 %1, 0
  br i1 %2, label %3, label %7, !prof !85

3:                                                ; preds = %0
  %4 = tail call i32 @__cxa_guard_acquire(ptr nonnull @_ZGVZN12_GLOBAL__N_14Str2B5cxx11EvE1xB5cxx11) #23
  %.not = icmp eq i32 %4, 0
  br i1 %.not, label %7, label %5

5:                                                ; preds = %3
  invoke void @_ZN4absl12NoDestructorINSt7__cxx1112basic_stringIcSt11char_traitsIcESaIcEEEEC2IJRA5_KcETnNSt9enable_ifIXntsr3std7is_sameIFvDpRNSt5decayIT_E4typeEEFvRS7_EEE5valueEiE4typeELi0EEEDpOSE_(ptr noundef nonnull align 8 dereferenceable(32) @_ZZN12_GLOBAL__N_14Str2B5cxx11EvE1xB5cxx11, ptr noundef nonnull align 1 dereferenceable(5) @.str.56)
          to label %6 unwind label %8

6:                                                ; preds = %5
  tail call void @__cxa_guard_release(ptr nonnull @_ZGVZN12_GLOBAL__N_14Str2B5cxx11EvE1xB5cxx11) #23
  br label %7

7:                                                ; preds = %6, %3, %0
  ret ptr @_ZZN12_GLOBAL__N_14Str2B5cxx11EvE1xB5cxx11

8:                                                ; preds = %5
  %9 = landingpad { ptr, i32 }
          cleanup
  tail call void @__cxa_guard_abort(ptr nonnull @_ZGVZN12_GLOBAL__N_14Str2B5cxx11EvE1xB5cxx11) #23
  resume { ptr, i32 } %9
}